(dp1
S'Ename'
p2
(dp3
S'type'
p4
S'string'
p5
sS'sortable'
p6
I3
sS'sql'
p7
S'VARCHAR(255)'
p8
ssS'Phno1'
p9
(dp10
g4
g5
sg6
I7
sg7
S'VARCHAR(255)'
p11
ssS'id'
p12
(dp13
g4
g12
sg6
I1
sg7
S'INT AUTO_INCREMENT NOT NULL'
p14
ssS'EID'
p15
(dp16
g4
g5
sg6
I2
sg7
S'VARCHAR(255)'
p17
ssS'address'
p18
(dp19
g4
g5
sg6
I5
sg7
S'VARCHAR(255)'
p20
ssS'Password'
p21
(dp22
g4
g5
sg6
I4
sg7
S'VARCHAR(255)'
p23
ssS'email'
p24
(dp25
g4
g5
sg6
I6
sg7
S'VARCHAR(255)'
p26
ss.